(dp0
S'EITC'
p1
(lp2
(dp3
S'r1_2'
p4
F0.36
sS'r1_3'
p5
F0.36
sS'r1_1'
p6
F0.34
sS'state_eitc2'
p7
F0.16
sS'state_eitc3'
p8
F0.5
sS'state_eitc1'
p9
F0.04
sS'b2_1'
p10
I11290
sS'b2_3'
p11
I11290
sS'b2_2'
p12
I11290
sS'r2_1'
p13
F0.1598
sS'r2_3'
p14
F0.2022
sS'r2_2'
p15
F0.2022
sS'b1_2'
p16
I8640
sS'b1_3'
p17
I8640
sS'b1_1'
p18
I6160
sa(dp19
g4
F0.36
sg5
F0.36
sg6
F0.34
sg7
F0.16
sg8
F0.5
sg9
F0.04
sg10
I11290
sg11
I11290
sg12
I11290
sg13
F0.1598
sg14
F0.2022
sg15
F0.2022
sg16
I8640
sg17
I8640
sg18
I6160
sa(dp20
g4
F0.36
sg5
F0.36
sg6
F0.34
sg7
F0.16
sg8
F0.5
sg9
F0.04
sg10
I11290
sg11
I11290
sg12
I11290
sg13
F0.1598
sg14
F0.2022
sg15
F0.2022
sg16
I8640
sg17
I8640
sg18
I6160
sa(dp21
g4
F0.36
sg5
F0.36
sg6
F0.34
sg7
F0.16
sg8
F0.5
sg9
F0.04
sg10
I11290
sg11
I11290
sg12
I11290
sg13
F0.1598
sg14
F0.2022
sg15
F0.2022
sg16
I8640
sg17
I8640
sg18
I6160
sa(dp22
g4
F0.36
sg5
F0.36
sg6
F0.34
sg7
F0.16
sg8
F0.5
sg9
F0.04
sg10
I11290
sg11
I11290
sg12
I11290
sg13
F0.1598
sg14
F0.2022
sg15
F0.2022
sg16
I8640
sg17
I8640
sg18
I6160
sa(dp23
g4
F0.36
sg5
F0.36
sg6
F0.34
sg7
F0.16
sg8
F0.5
sg9
F0.04
sg10
I11290
sg11
I11290
sg12
I11290
sg13
F0.1598
sg14
F0.2022
sg15
F0.2022
sg16
I8640
sg17
I8640
sg18
I6160
sa(dp24
g4
F0.36
sg5
F0.36
sg6
F0.34
sg7
F0.16
sg8
F0.5
sg9
F0.04
sg10
I11290
sg11
I11290
sg12
I11290
sg13
F0.1598
sg14
F0.2022
sg15
F0.2022
sg16
I8640
sg17
I8640
sg18
I6160
sa(dp25
g4
F0.36
sg5
F0.36
sg6
F0.34
sg7
F0.16
sg8
F0.5
sg9
F0.04
sg10
I11290
sg11
I11290
sg12
I11290
sg13
F0.1598
sg14
F0.2022
sg15
F0.2022
sg16
I8640
sg17
I8640
sg18
I6160
sa(dp26
g4
F0.36
sg5
F0.36
sg6
F0.34
sg7
F0.16
sg8
F0.5
sg9
F0.04
sg10
I11290
sg11
I11290
sg12
I11290
sg13
F0.1598
sg14
F0.2022
sg15
F0.2022
sg16
I8640
sg17
I8640
sg18
I6160
sa(dp27
g4
F0.36
sg5
F0.36
sg6
F0.34
sg7
F0.16
sg8
F0.5
sg9
F0.04
sg10
I11290
sg11
I11290
sg12
I11290
sg13
F0.1598
sg14
F0.2022
sg15
F0.2022
sg16
I8640
sg17
I8640
sg18
I6160
sa(dp28
g4
F0.36
sg5
F0.36
sg6
F0.34
sg7
F0.16
sg8
F0.5
sg9
F0.04
sg10
I11290
sg11
I11290
sg12
I11290
sg13
F0.1598
sg14
F0.2022
sg15
F0.2022
sg16
I8640
sg17
I8640
sg18
I6160
sa(dp29
g4
F0.36
sg5
F0.36
sg6
F0.34
sg7
F0.16
sg8
F0.5
sg9
F0.04
sg10
I11290
sg11
I11290
sg12
I11290
sg13
F0.1598
sg14
F0.2022
sg15
F0.2022
sg16
I8640
sg17
I8640
sg18
I6160
sa(dp30
g4
F0.36
sg5
F0.36
sg6
F0.34
sg7
F0.16
sg8
F0.5
sg9
F0.04
sg10
I11290
sg11
I11290
sg12
I11290
sg13
F0.1598
sg14
F0.2022
sg15
F0.2022
sg16
I8640
sg17
I8640
sg18
I6160
sa(dp31
g4
F0.36
sg5
F0.36
sg6
F0.34
sg7
F0.16
sg8
F0.5
sg9
F0.04
sg10
I11290
sg11
I11290
sg12
I11290
sg13
F0.1598
sg14
F0.2022
sg15
F0.2022
sg16
I8640
sg17
I8640
sg18
I6160
sa(dp32
g4
F0.36
sg5
F0.36
sg6
F0.34
sg7
F0.16
sg8
F0.5
sg9
F0.04
sg10
I11290
sg11
I11290
sg12
I11290
sg13
F0.1598
sg14
F0.2022
sg15
F0.2022
sg16
I8640
sg17
I8640
sg18
I6160
sa(dp33
g4
F0.36
sg5
F0.36
sg6
F0.34
sg7
F0.16
sg8
F0.5
sg9
F0.04
sg10
I11290
sg11
I11290
sg12
I11290
sg13
F0.1598
sg14
F0.2022
sg15
F0.2022
sg16
I8640
sg17
I8640
sg18
I6160
sa(dp34
g4
F0.36
sg5
F0.36
sg6
F0.34
sg7
F0.16
sg8
F0.5
sg9
F0.04
sg10
I11290
sg11
I11290
sg12
I11290
sg13
F0.1598
sg14
F0.2022
sg15
F0.2022
sg16
I8640
sg17
I8640
sg18
I6160
sa(dp35
g4
F0.36
sg5
F0.36
sg6
F0.34
sg7
F0.16
sg8
F0.5
sg9
F0.04
sg10
I11290
sg11
I11290
sg12
I11290
sg13
F0.1598
sg14
F0.2022
sg15
F0.2022
sg16
I8640
sg17
I8640
sg18
I6160
sa(dp36
g4
F0.36
sg5
F0.36
sg6
F0.34
sg7
F0.16
sg8
F0.5
sg9
F0.04
sg10
I11290
sg11
I11290
sg12
I11290
sg13
F0.1598
sg14
F0.2022
sg15
F0.2022
sg16
I8640
sg17
I8640
sg18
I6160
sas.