(lp0
(dp1
S'r1_2'
p2
I0
sS'r1_3'
p3
I0
sS'r1_1'
p4
I0
sS'state_eitc2'
p5
I0
sS'state_eitc3'
p6
I0
sS'state_eitc1'
p7
I0
sS'b2_1'
p8
I11290
sS'b2_3'
p9
I11290
sS'b2_2'
p10
I11290
sS'r2_1'
p11
I0
sS'r2_3'
p12
I0
sS'r2_2'
p13
I0
sS'b1_2'
p14
I8640
sS'b1_3'
p15
I8640
sS'b1_1'
p16
I6160
sa(dp17
g2
I0
sg3
I0
sg4
I0
sg5
I0
sg6
I0
sg7
I0
sg8
I11290
sg9
I11290
sg10
I11290
sg11
I0
sg12
I0
sg13
I0
sg14
I8640
sg15
I8640
sg16
I6160
sa(dp18
g2
I0
sg3
I0
sg4
I0
sg5
I0
sg6
I0
sg7
I0
sg8
I11290
sg9
I11290
sg10
I11290
sg11
I0
sg12
I0
sg13
I0
sg14
I8640
sg15
I8640
sg16
I6160
sa(dp19
g2
I0
sg3
I0
sg4
I0
sg5
I0
sg6
I0
sg7
I0
sg8
I11290
sg9
I11290
sg10
I11290
sg11
I0
sg12
I0
sg13
I0
sg14
I8640
sg15
I8640
sg16
I6160
sa(dp20
g2
I0
sg3
I0
sg4
I0
sg5
I0
sg6
I0
sg7
I0
sg8
I11290
sg9
I11290
sg10
I11290
sg11
I0
sg12
I0
sg13
I0
sg14
I8640
sg15
I8640
sg16
I6160
sa(dp21
g2
I0
sg3
I0
sg4
I0
sg5
I0
sg6
I0
sg7
I0
sg8
I11290
sg9
I11290
sg10
I11290
sg11
I0
sg12
I0
sg13
I0
sg14
I8640
sg15
I8640
sg16
I6160
sa(dp22
g2
I0
sg3
I0
sg4
I0
sg5
I0
sg6
I0
sg7
I0
sg8
I11290
sg9
I11290
sg10
I11290
sg11
I0
sg12
I0
sg13
I0
sg14
I8640
sg15
I8640
sg16
I6160
sa(dp23
g2
I0
sg3
I0
sg4
I0
sg5
I0
sg6
I0
sg7
I0
sg8
I11290
sg9
I11290
sg10
I11290
sg11
I0
sg12
I0
sg13
I0
sg14
I8640
sg15
I8640
sg16
I6160
sa(dp24
g2
I0
sg3
I0
sg4
I0
sg5
I0
sg6
I0
sg7
I0
sg8
I11290
sg9
I11290
sg10
I11290
sg11
I0
sg12
I0
sg13
I0
sg14
I8640
sg15
I8640
sg16
I6160
sa(dp25
g2
I0
sg3
I0
sg4
I0
sg5
I0
sg6
I0
sg7
I0
sg8
I11290
sg9
I11290
sg10
I11290
sg11
I0
sg12
I0
sg13
I0
sg14
I8640
sg15
I8640
sg16
I6160
sa(dp26
g2
I0
sg3
I0
sg4
I0
sg5
I0
sg6
I0
sg7
I0
sg8
I11290
sg9
I11290
sg10
I11290
sg11
I0
sg12
I0
sg13
I0
sg14
I8640
sg15
I8640
sg16
I6160
sa(dp27
g2
I0
sg3
I0
sg4
I0
sg5
I0
sg6
I0
sg7
I0
sg8
I11290
sg9
I11290
sg10
I11290
sg11
I0
sg12
I0
sg13
I0
sg14
I8640
sg15
I8640
sg16
I6160
sa(dp28
g2
I0
sg3
I0
sg4
I0
sg5
I0
sg6
I0
sg7
I0
sg8
I11290
sg9
I11290
sg10
I11290
sg11
I0
sg12
I0
sg13
I0
sg14
I8640
sg15
I8640
sg16
I6160
sa(dp29
g2
I0
sg3
I0
sg4
I0
sg5
I0
sg6
I0
sg7
I0
sg8
I11290
sg9
I11290
sg10
I11290
sg11
I0
sg12
I0
sg13
I0
sg14
I8640
sg15
I8640
sg16
I6160
sa(dp30
g2
I0
sg3
I0
sg4
I0
sg5
I0
sg6
I0
sg7
I0
sg8
I11290
sg9
I11290
sg10
I11290
sg11
I0
sg12
I0
sg13
I0
sg14
I8640
sg15
I8640
sg16
I6160
sa(dp31
g2
I0
sg3
I0
sg4
I0
sg5
I0
sg6
I0
sg7
I0
sg8
I11290
sg9
I11290
sg10
I11290
sg11
I0
sg12
I0
sg13
I0
sg14
I8640
sg15
I8640
sg16
I6160
sa(dp32
g2
I0
sg3
I0
sg4
I0
sg5
I0
sg6
I0
sg7
I0
sg8
I11290
sg9
I11290
sg10
I11290
sg11
I0
sg12
I0
sg13
I0
sg14
I8640
sg15
I8640
sg16
I6160
sa(dp33
g2
I0
sg3
I0
sg4
I0
sg5
I0
sg6
I0
sg7
I0
sg8
I11290
sg9
I11290
sg10
I11290
sg11
I0
sg12
I0
sg13
I0
sg14
I8640
sg15
I8640
sg16
I6160
sa(dp34
g2
I0
sg3
I0
sg4
I0
sg5
I0
sg6
I0
sg7
I0
sg8
I11290
sg9
I11290
sg10
I11290
sg11
I0
sg12
I0
sg13
I0
sg14
I8640
sg15
I8640
sg16
I6160
sa.