(dp0
S'EITC'
p1
(lp2
(dp3
S'r1_2'
p4
F0.36
sS'r1_3'
p5
F0.36
sS'r1_1'
p6
F0.34
sS'state_eitc2'
p7
F0.16
sS'state_eitc3'
p8
F0.5
sS'state_eitc1'
p9
F0.04
sS'b2_1'
p10
I11290
sS'b2_3'
p11
I11290
sS'b2_2'
p12
I11290
sS'r2_1'
p13
F0.1598
sS'r2_3'
p14
F0.2022
sS'r2_2'
p15
F0.2022
sS'b1_2'
p16
I8640
sS'b1_3'
p17
I8640
sS'b1_1'
p18
I6160
sa(dp19
g4
F0.4
sg5
F0.4
sg6
F0.34
sg7
F0.14
sg8
F0.43
sg9
F0.04
sg10
I11610
sg11
I11610
sg12
I11610
sg13
F0.1598
sg14
F0.2106
sg15
F0.2106
sg16
I8890
sg17
I8890
sg18
I6330
sa(dp20
g4
F0.4
sg5
F0.4
sg6
F0.34
sg7
F0.14
sg8
F0.43
sg9
F0.04
sg10
I11930
sg11
I11930
sg12
I11930
sg13
F0.1598
sg14
F0.2106
sg15
F0.2106
sg16
I9140
sg17
I9140
sg18
I6500
sa(dp21
g4
F0.4
sg5
F0.4
sg6
F0.34
sg7
F0.14
sg8
F0.43
sg9
F0.04
sg10
I12260
sg11
I12260
sg12
I12260
sg13
F0.1598
sg14
F0.2106
sg15
F0.2106
sg16
I9390
sg17
I9390
sg18
I6680
sa(dp22
g4
F0.4
sg5
F0.4
sg6
F0.34
sg7
F0.14
sg8
F0.43
sg9
F0.04
sg10
I12460
sg11
I12460
sg12
I12460
sg13
F0.1598
sg14
F0.2106
sg15
F0.2106
sg16
I9540
sg17
I9540
sg18
I6800
sa(dp23
g4
F0.4
sg5
F0.4
sg6
F0.34
sg7
F0.14
sg8
F0.43
sg9
F0.04
sg10
I12690
sg11
I12690
sg12
I12690
sg13
F0.1598
sg14
F0.2106
sg15
F0.2106
sg16
I9720
sg17
I9720
sg18
I6920
sa(dp24
g4
F0.4
sg5
F0.4
sg6
F0.34
sg7
F0.14
sg8
F0.43
sg9
F0.04
sg10
I13090
sg11
I13090
sg12
I13090
sg13
F0.1598
sg14
F0.2106
sg15
F0.2106
sg16
I10020
sg17
I10020
sg18
I7140
sa(dp25
g4
F0.4
sg5
F0.4
sg6
F0.34
sg7
F0.14
sg8
F0.43
sg9
F0.04
sg10
I13520
sg11
I13520
sg12
I13520
sg13
F0.1598
sg14
F0.2106
sg15
F0.2106
sg16
I10350
sg17
I10350
sg18
I7370
sa(dp26
g4
F0.4
sg5
F0.4
sg6
F0.34
sg7
F0.14
sg8
F0.43
sg9
F0.04
sg10
I13730
sg11
I13730
sg12
I13730
sg13
F0.1598
sg14
F0.2106
sg15
F0.2106
sg16
I10510
sg17
I10510
sg18
I7490
sa(dp27
g4
F0.4
sg5
F0.4
sg6
F0.34
sg7
F0.14
sg8
F0.43
sg9
F0.04
sg10
I14040
sg11
I14040
sg12
I14040
sg13
F0.1598
sg14
F0.2106
sg15
F0.2106
sg16
I10750
sg17
I10750
sg18
I7660
sa(dp28
g4
F0.4
sg5
F0.4
sg6
F0.34
sg7
F0.14
sg8
F0.43
sg9
F0.04
sg10
I14370
sg11
I14370
sg12
I14370
sg13
F0.1598
sg14
F0.2106
sg15
F0.2106
sg16
I11000
sg17
I11000
sg18
I7830
sa(dp29
g4
F0.4
sg5
F0.4
sg6
F0.34
sg7
F0.14
sg8
F0.43
sg9
F0.04
sg10
I14810
sg11
I14810
sg12
I14810
sg13
F0.1598
sg14
F0.2106
sg15
F0.2106
sg16
I11340
sg17
I11340
sg18
I8080
sa(dp30
g4
F0.4
sg5
F0.4
sg6
F0.34
sg7
F0.14
sg8
F0.43
sg9
F0.04
sg10
I15390
sg11
I15390
sg12
I15390
sg13
F0.1598
sg14
F0.2106
sg15
F0.2106
sg16
I11790
sg17
I11790
sg18
I8390
sa(dp31
g4
F0.4
sg5
F0.4
sg6
F0.34
sg7
F0.14
sg8
F0.43
sg9
F0.04
sg10
I15740
sg11
I15740
sg12
I15740
sg13
F0.1598
sg14
F0.2106
sg15
F0.2106
sg16
I12060
sg17
I12060
sg18
I8580
sa(dp32
g4
F0.4
sg5
F0.45
sg6
F0.34
sg7
F0.14
sg8
F0.43
sg9
F0.04
sg10
I16420
sg11
I16420
sg12
I16420
sg13
F0.1598
sg14
F0.2106
sg15
F0.2106
sg16
I12570
sg17
I12570
sg18
I8950
sa(dp33
g4
F0.4
sg5
F0.45
sg6
F0.34
sg7
F0.14
sg8
F0.43
sg9
F0.04
sg10
I16450
sg11
I16450
sg12
I16450
sg13
F0.1598
sg14
F0.2106
sg15
F0.2106
sg16
I12590
sg17
I12590
sg18
I8970
sa(dp34
g4
F0.4
sg5
F0.45
sg6
F0.34
sg7
F0.14
sg8
F0.43
sg9
F0.04
sg10
I16690
sg11
I16690
sg12
I16690
sg13
F0.1598
sg14
F0.2106
sg15
F0.2106
sg16
I12780
sg17
I12780
sg18
I9100
sa(dp35
g4
F0.4
sg5
F0.45
sg6
F0.34
sg7
F0.14
sg8
F0.43
sg9
F0.04
sg10
I17090
sg11
I17090
sg12
I17090
sg13
F0.1598
sg14
F0.2106
sg15
F0.2106
sg16
I13090
sg17
I13090
sg18
I9320
sa(dp36
g4
F0.4
sg5
F0.45
sg6
F0.34
sg7
F0.14
sg8
F0.43
sg9
F0.04
sg10
I17530
sg11
I17530
sg12
I17530
sg13
F0.1598
sg14
F0.2106
sg15
F0.2106
sg16
I13430
sg17
I13430
sg18
I9560
sas.