(dp0
S'Full EITC'
p1
(lp2
(dp3
S'r1_2'
p4
F0.36
sS'r1_1'
p5
F0.34
sS'state_eitc2'
p6
F0.16
sS'state_eitc3'
p7
F0.5
sS'state_eitc1'
p8
F0.04
sS'b2_1'
p9
I11290
sS'b2_2'
p10
I11290
sS'r2_1'
p11
F0.1598
sS'r2_2'
p12
F0.2022
sS'b1_2'
p13
I8640
sS'b1_1'
p14
I6160
sa(dp15
g4
F0.4
sg5
F0.34
sg6
F0.14
sg7
F0.43
sg8
F0.04
sg9
I11610
sg10
I11610
sg11
F0.1598
sg12
F0.2106
sg13
I8890
sg14
I6330
sa(dp16
g4
F0.4
sg5
F0.34
sg6
F0.14
sg7
F0.43
sg8
F0.04
sg9
I11930
sg10
I11930
sg11
F0.1598
sg12
F0.2106
sg13
I9140
sg14
I6500
sa(dp17
g4
F0.4
sg5
F0.34
sg6
F0.14
sg7
F0.43
sg8
F0.04
sg9
I12260
sg10
I12260
sg11
F0.1598
sg12
F0.2106
sg13
I9390
sg14
I6680
sa(dp18
g4
F0.4
sg5
F0.34
sg6
F0.14
sg7
F0.43
sg8
F0.04
sg9
I12460
sg10
I12460
sg11
F0.1598
sg12
F0.2106
sg13
I9540
sg14
I6800
sa(dp19
g4
F0.4
sg5
F0.34
sg6
F0.14
sg7
F0.43
sg8
F0.04
sg9
I12690
sg10
I12690
sg11
F0.1598
sg12
F0.2106
sg13
I9720
sg14
I6920
sa(dp20
g4
F0.4
sg5
F0.34
sg6
F0.14
sg7
F0.43
sg8
F0.04
sg9
I13090
sg10
I13090
sg11
F0.1598
sg12
F0.2106
sg13
I10020
sg14
I7140
sa(dp21
g4
F0.4
sg5
F0.34
sg6
F0.14
sg7
F0.43
sg8
F0.04
sg9
I13520
sg10
I13520
sg11
F0.1598
sg12
F0.2106
sg13
I10350
sg14
I7370
sa(dp22
g4
F0.4
sg5
F0.34
sg6
F0.14
sg7
F0.43
sg8
F0.04
sg9
I13730
sg10
I13730
sg11
F0.1598
sg12
F0.2106
sg13
I10510
sg14
I7490
sasS'No EITC'
p23
(lp24
(dp25
g14
I6160
sg4
I0
sg11
I0
sg5
I0
sg6
F0.16
sg7
F0.5
sg8
F0.04
sg13
I8640
sg12
I0
sg9
I11290
sg10
I11290
sa(dp26
g14
I6330
sg4
I0
sg11
I0
sg5
I0
sg6
F0.14
sg7
F0.43
sg8
F0.04
sg13
I8890
sg12
I0
sg9
I11610
sg10
I11610
sa(dp27
g14
I6500
sg4
I0
sg11
I0
sg5
I0
sg6
F0.14
sg7
F0.43
sg8
F0.04
sg13
I9140
sg12
I0
sg9
I11930
sg10
I11930
sa(dp28
g14
I6680
sg4
I0
sg11
I0
sg5
I0
sg6
F0.14
sg7
F0.43
sg8
F0.04
sg13
I9390
sg12
I0
sg9
I12260
sg10
I12260
sa(dp29
g14
I6800
sg4
I0
sg11
I0
sg5
I0
sg6
F0.14
sg7
F0.43
sg8
F0.04
sg13
I9540
sg12
I0
sg9
I12460
sg10
I12460
sa(dp30
g14
I6920
sg4
I0
sg11
I0
sg5
I0
sg6
F0.14
sg7
F0.43
sg8
F0.04
sg13
I9720
sg12
I0
sg9
I12690
sg10
I12690
sa(dp31
g14
I7140
sg4
I0
sg11
I0
sg5
I0
sg6
F0.14
sg7
F0.43
sg8
F0.04
sg13
I10020
sg12
I0
sg9
I13090
sg10
I13090
sa(dp32
g14
I7370
sg4
I0
sg11
I0
sg5
I0
sg6
F0.14
sg7
F0.43
sg8
F0.04
sg13
I10350
sg12
I0
sg9
I13520
sg10
I13520
sa(dp33
g14
I7490
sg4
I0
sg11
I0
sg5
I0
sg6
F0.14
sg7
F0.43
sg8
F0.04
sg13
I10510
sg12
I0
sg9
I13730
sg10
I13730
sas.