(dp0
S'Full EITC'
p1
(lp2
(dp3
S'r1_2'
p4
F0.36
sS'r1_3'
p5
F0.36
sS'r1_1'
p6
F0.34
sS'state_eitc2'
p7
F0.16
sS'state_eitc3'
p8
F0.5
sS'state_eitc1'
p9
F0.04
sS'b2_1'
p10
I11290
sS'b2_3'
p11
I11290
sS'b2_2'
p12
I11290
sS'r2_1'
p13
F0.1598
sS'r2_3'
p14
F0.2022
sS'r2_2'
p15
F0.2022
sS'b1_2'
p16
I8640
sS'b1_3'
p17
I8640
sS'b1_1'
p18
I6160
sa(dp19
g4
F0.4
sg5
F0.4
sg6
F0.34
sg7
F0.14
sg8
F0.43
sg9
F0.04
sg10
I11610
sg11
I11610
sg12
I11610
sg13
F0.1598
sg14
F0.2106
sg15
F0.2106
sg16
I8890
sg17
I8890
sg18
I6330
sa(dp20
g4
F0.4
sg5
F0.4
sg6
F0.34
sg7
F0.14
sg8
F0.43
sg9
F0.04
sg10
I11930
sg11
I11930
sg12
I11930
sg13
F0.1598
sg14
F0.2106
sg15
F0.2106
sg16
I9140
sg17
I9140
sg18
I6500
sa(dp21
g4
F0.4
sg5
F0.4
sg6
F0.34
sg7
F0.14
sg8
F0.43
sg9
F0.04
sg10
I12260
sg11
I12260
sg12
I12260
sg13
F0.1598
sg14
F0.2106
sg15
F0.2106
sg16
I9390
sg17
I9390
sg18
I6680
sa(dp22
g4
F0.4
sg5
F0.4
sg6
F0.34
sg7
F0.14
sg8
F0.43
sg9
F0.04
sg10
I12460
sg11
I12460
sg12
I12460
sg13
F0.1598
sg14
F0.2106
sg15
F0.2106
sg16
I9540
sg17
I9540
sg18
I6800
sa(dp23
g4
F0.4
sg5
F0.4
sg6
F0.34
sg7
F0.14
sg8
F0.43
sg9
F0.04
sg10
I12690
sg11
I12690
sg12
I12690
sg13
F0.1598
sg14
F0.2106
sg15
F0.2106
sg16
I9720
sg17
I9720
sg18
I6920
sa(dp24
g4
F0.4
sg5
F0.4
sg6
F0.34
sg7
F0.14
sg8
F0.43
sg9
F0.04
sg10
I13090
sg11
I13090
sg12
I13090
sg13
F0.1598
sg14
F0.2106
sg15
F0.2106
sg16
I10020
sg17
I10020
sg18
I7140
sa(dp25
g4
F0.4
sg5
F0.4
sg6
F0.34
sg7
F0.14
sg8
F0.43
sg9
F0.04
sg10
I13520
sg11
I13520
sg12
I13520
sg13
F0.1598
sg14
F0.2106
sg15
F0.2106
sg16
I10350
sg17
I10350
sg18
I7370
sa(dp26
g4
F0.4
sg5
F0.4
sg6
F0.34
sg7
F0.14
sg8
F0.43
sg9
F0.04
sg10
I13730
sg11
I13730
sg12
I13730
sg13
F0.1598
sg14
F0.2106
sg15
F0.2106
sg16
I10510
sg17
I10510
sg18
I7490
sa(dp27
g4
F0.4
sg5
F0.4
sg6
F0.34
sg7
F0.14
sg8
F0.43
sg9
F0.04
sg10
I14040
sg11
I14040
sg12
I14040
sg13
F0.1598
sg14
F0.2106
sg15
F0.2106
sg16
I10750
sg17
I10750
sg18
I7660
sa(dp28
g4
F0.4
sg5
F0.4
sg6
F0.34
sg7
F0.14
sg8
F0.43
sg9
F0.04
sg10
I14370
sg11
I14370
sg12
I14370
sg13
F0.1598
sg14
F0.2106
sg15
F0.2106
sg16
I11000
sg17
I11000
sg18
I7830
sa(dp29
g4
F0.4
sg5
F0.4
sg6
F0.34
sg7
F0.14
sg8
F0.43
sg9
F0.04
sg10
I14810
sg11
I14810
sg12
I14810
sg13
F0.1598
sg14
F0.2106
sg15
F0.2106
sg16
I11340
sg17
I11340
sg18
I8080
sa(dp30
g4
F0.4
sg5
F0.4
sg6
F0.34
sg7
F0.14
sg8
F0.43
sg9
F0.04
sg10
I15390
sg11
I15390
sg12
I15390
sg13
F0.1598
sg14
F0.2106
sg15
F0.2106
sg16
I11790
sg17
I11790
sg18
I8390
sa(dp31
g4
F0.4
sg5
F0.4
sg6
F0.34
sg7
F0.14
sg8
F0.43
sg9
F0.04
sg10
I15740
sg11
I15740
sg12
I15740
sg13
F0.1598
sg14
F0.2106
sg15
F0.2106
sg16
I12060
sg17
I12060
sg18
I8580
sa(dp32
g4
F0.4
sg5
F0.45
sg6
F0.34
sg7
F0.14
sg8
F0.43
sg9
F0.04
sg10
I16420
sg11
I16420
sg12
I16420
sg13
F0.1598
sg14
F0.2106
sg15
F0.2106
sg16
I12570
sg17
I12570
sg18
I8950
sa(dp33
g4
F0.4
sg5
F0.45
sg6
F0.34
sg7
F0.14
sg8
F0.43
sg9
F0.04
sg10
I16450
sg11
I16450
sg12
I16450
sg13
F0.1598
sg14
F0.2106
sg15
F0.2106
sg16
I12590
sg17
I12590
sg18
I8970
sa(dp34
g4
F0.4
sg5
F0.45
sg6
F0.34
sg7
F0.14
sg8
F0.43
sg9
F0.04
sg10
I16690
sg11
I16690
sg12
I16690
sg13
F0.1598
sg14
F0.2106
sg15
F0.2106
sg16
I12780
sg17
I12780
sg18
I9100
sa(dp35
g4
F0.4
sg5
F0.45
sg6
F0.34
sg7
F0.14
sg8
F0.43
sg9
F0.04
sg10
I17090
sg11
I17090
sg12
I17090
sg13
F0.1598
sg14
F0.2106
sg15
F0.2106
sg16
I13090
sg17
I13090
sg18
I9320
sasS'No EITC'
p36
(lp37
(dp38
g18
I7750
sg4
F0.3
sg5
F0.36
sg6
F0.263
sg7
F0.16
sg8
F0.5
sg14
F0.2022
sg9
F0.04
sg13
F0.1598
sg16
I8425
sg17
I8640
sg15
F0.1768
sg10
I11000
sg11
I11290
sg12
I11000
sa(dp39
g18
F7963.87987012987
sg4
F0.3
sg5
F0.3
sg6
F0.263
sg7
F0.14
sg8
F0.43
sg14
F0.1768
sg9
F0.04
sg13
F0.1598
sg16
F8668.778935185184
sg17
F8668.778935185184
sg15
F0.1768
sg10
F11311.780336581045
sg11
F11311.780336581045
sg12
F11311.780336581045
sa(dp40
g18
F7958.135860979463
sg4
F0.3
sg5
F0.3
sg6
F0.263
sg7
F0.14
sg8
F0.43
sg14
F0.1768
sg9
F0.04
sg13
F0.1598
sg16
F8661.923509561306
sg17
F8661.923509561306
sg15
F0.1768
sg10
F11303.186907838071
sg11
F11303.186907838071
sg12
F11303.186907838071
sa(dp41
g18
F7964.615384615385
sg4
F0.3
sg5
F0.3
sg6
F0.263
sg7
F0.14
sg8
F0.43
sg14
F0.1768
sg9
F0.04
sg13
F0.1598
sg16
F8655.443107221006
sg17
F8655.443107221006
sg15
F0.1768
sg10
F11304.274937133277
sg11
F11304.274937133277
sg12
F11304.274937133277
sa(dp42
g18
F7889.2215568862275
sg4
F0.3
sg5
F0.3
sg6
F0.263
sg7
F0.14
sg8
F0.43
sg14
F0.1768
sg9
F0.04
sg13
F0.1598
sg16
F8559.584664536742
sg17
F8559.584664536742
sg15
F0.1768
sg10
F11179.445350734095
sg11
F11179.445350734095
sg12
F11179.445350734095
sa(dp43
g18
F7886.764705882352
sg4
F0.3
sg5
F0.3
sg6
F0.263
sg7
F0.14
sg8
F0.43
sg14
F0.1768
sg9
F0.04
sg13
F0.1598
sg16
F8583.962264150943
sg17
F8583.962264150943
sg15
F0.1768
sg10
F11203.049759229534
sg11
F11203.049759229534
sg12
F11203.049759229534
sa(dp44
g18
F7996.387283236994
sg4
F0.3
sg5
F0.3
sg6
F0.263
sg7
F0.14
sg8
F0.43
sg14
F0.1768
sg9
F0.04
sg13
F0.1598
sg16
F8685.03086419753
sg17
F8685.03086419753
sg15
F0.1768
sg10
F11346.729708431836
sg11
F11346.729708431836
sg12
F11346.729708431836
sa(dp45
g18
F7999.649859943978
sg4
F0.3
sg5
F0.3
sg6
F0.263
sg7
F0.14
sg8
F0.43
sg14
F0.1768
sg9
F0.04
sg13
F0.1598
sg16
F8702.470059880241
sg17
F8702.470059880241
sg15
F0.1768
sg10
F11361.344537815126
sg11
F11361.344537815126
sg12
F11361.344537815126
sa(dp46
g18
F7876.18724559023
sg4
F0.3
sg5
F0.3
sg6
F0.263
sg7
F0.14
sg8
F0.43
sg14
F0.1768
sg9
F0.04
sg13
F0.1598
sg16
F8555.24154589372
sg17
F8555.24154589372
sg15
F0.1768
sg10
F11170.85798816568
sg11
F11170.85798816568
sg12
F11170.85798816568
sa(dp47
g18
F7925.901201602137
sg4
F0.3
sg5
F0.3
sg6
F0.263
sg7
F0.14
sg8
F0.43
sg14
F0.1768
sg9
F0.04
sg13
F0.1598
sg16
F8617.388201712654
sg17
F8617.388201712654
sg15
F0.1768
sg10
F11248.361252731245
sg11
F11248.361252731245
sg12
F11248.361252731245
sa(dp48
g18
F7921.997389033942
sg4
F0.3
sg5
F0.3
sg6
F0.263
sg7
F0.14
sg8
F0.43
sg14
F0.1768
sg9
F0.04
sg13
F0.1598
sg16
F8620.93023255814
sg17
F8620.93023255814
sg15
F0.1768
sg10
F11258.547008547008
sg11
F11258.547008547008
sg12
F11258.547008547008
sa(dp49
g18
F7997.445721583653
sg4
F0.3
sg5
F0.3
sg6
F0.263
sg7
F0.14
sg8
F0.43
sg14
F0.1768
sg9
F0.04
sg13
F0.1598
sg16
F8685.409090909092
sg17
F8685.409090909092
sg15
F0.1768
sg10
F11336.812804453722
sg11
F11336.812804453722
sg12
F11336.812804453722
sa(dp50
g18
F8047.339108910891
sg4
F0.3
sg5
F0.3
sg6
F0.263
sg7
F0.14
sg8
F0.43
sg14
F0.1768
sg9
F0.04
sg13
F0.1598
sg16
F8759.325396825398
sg17
F8759.325396825398
sg15
F0.1768
sg10
F11430.790006752195
sg11
F11430.790006752195
sg12
F11430.790006752195
sa(dp51
g18
F7925.506555423123
sg4
F0.3
sg5
F0.3
sg6
F0.263
sg7
F0.14
sg8
F0.43
sg14
F0.1768
sg9
F0.04
sg13
F0.1598
sg16
F8617.93893129771
sg17
F8617.93893129771
sg15
F0.1768
sg10
F11250.1624431449
sg11
F11250.1624431449
sg12
F11250.1624431449
sa(dp52
g18
F8084.207459207459
sg4
F0.3
sg5
F0.3
sg6
F0.263
sg7
F0.14
sg8
F0.43
sg14
F0.1768
sg9
F0.04
sg13
F0.1598
sg16
F8781.281094527363
sg17
F8781.281094527363
sg15
F0.1768
sg10
F11475.222363405337
sg11
F11475.222363405337
sg12
F11475.222363405337
sa(dp53
g18
F7767.31843575419
sg4
F0.3
sg5
F0.3
sg6
F0.263
sg7
F0.14
sg8
F0.43
sg14
F0.1768
sg9
F0.04
sg13
F0.1598
sg16
F8438.40493237868
sg17
F8438.40493237868
sg15
F0.1768
sg10
F11020.097442143728
sg11
F11020.097442143728
sg12
F11020.097442143728
sa(dp54
g18
F7862.318840579711
sg4
F0.3
sg5
F0.3
sg6
F0.263
sg7
F0.14
sg8
F0.43
sg14
F0.1768
sg9
F0.04
sg13
F0.1598
sg16
F8552.144559173947
sg17
F8552.144559173947
sg15
F0.1768
sg10
F11160.48632218845
sg11
F11160.48632218845
sg12
F11160.48632218845
sa(dp55
g18
F7937.362637362637
sg4
F0.3
sg5
F0.3
sg6
F0.263
sg7
F0.14
sg8
F0.43
sg14
F0.1768
sg9
F0.04
sg13
F0.1598
sg16
F8629.362284820032
sg17
F8629.362284820032
sg15
F0.1768
sg10
F11263.630916716596
sg11
F11263.630916716596
sg12
F11263.630916716596
sas.