(lp0
(dp1
S'r1_2'
p2
F0.36
sS'r1_3'
p3
F0.36
sS'r1_1'
p4
F0.34
sS'state_eitc2'
p5
F0.16
sS'state_eitc3'
p6
F0.5
sS'state_eitc1'
p7
F0.04
sS'b2_1'
p8
I11290
sS'b2_3'
p9
I11290
sS'b2_2'
p10
I11290
sS'r2_1'
p11
F0.1598
sS'r2_3'
p12
F0.2022
sS'r2_2'
p13
F0.2022
sS'b1_2'
p14
I8640
sS'b1_3'
p15
I8640
sS'b1_1'
p16
I6160
sa(dp17
g2
F0.4
sg3
F0.4
sg4
F0.34
sg5
F0.14
sg6
F0.43
sg7
F0.04
sg8
I11610
sg9
I11610
sg10
I11610
sg11
F0.1598
sg12
F0.2106
sg13
F0.2106
sg14
I8890
sg15
I8890
sg16
I6330
sa(dp18
g2
F0.4
sg3
F0.4
sg4
F0.34
sg5
F0.14
sg6
F0.43
sg7
F0.04
sg8
I11930
sg9
I11930
sg10
I11930
sg11
F0.1598
sg12
F0.2106
sg13
F0.2106
sg14
I9140
sg15
I9140
sg16
I6500
sa(dp19
g2
F0.4
sg3
F0.4
sg4
F0.34
sg5
F0.14
sg6
F0.43
sg7
F0.04
sg8
I12260
sg9
I12260
sg10
I12260
sg11
F0.1598
sg12
F0.2106
sg13
F0.2106
sg14
I9390
sg15
I9390
sg16
I6680
sa(dp20
g2
F0.4
sg3
F0.4
sg4
F0.34
sg5
F0.14
sg6
F0.43
sg7
F0.04
sg8
I12460
sg9
I12460
sg10
I12460
sg11
F0.1598
sg12
F0.2106
sg13
F0.2106
sg14
I9540
sg15
I9540
sg16
I6800
sa(dp21
g2
F0.4
sg3
F0.4
sg4
F0.34
sg5
F0.14
sg6
F0.43
sg7
F0.04
sg8
I12690
sg9
I12690
sg10
I12690
sg11
F0.1598
sg12
F0.2106
sg13
F0.2106
sg14
I9720
sg15
I9720
sg16
I6920
sa(dp22
g2
F0.4
sg3
F0.4
sg4
F0.34
sg5
F0.14
sg6
F0.43
sg7
F0.04
sg8
I13090
sg9
I13090
sg10
I13090
sg11
F0.1598
sg12
F0.2106
sg13
F0.2106
sg14
I10020
sg15
I10020
sg16
I7140
sa(dp23
g2
F0.4
sg3
F0.4
sg4
F0.34
sg5
F0.14
sg6
F0.43
sg7
F0.04
sg8
I13520
sg9
I13520
sg10
I13520
sg11
F0.1598
sg12
F0.2106
sg13
F0.2106
sg14
I10350
sg15
I10350
sg16
I7370
sa(dp24
g2
F0.4
sg3
F0.4
sg4
F0.34
sg5
F0.14
sg6
F0.43
sg7
F0.04
sg8
I13730
sg9
I13730
sg10
I13730
sg11
F0.1598
sg12
F0.2106
sg13
F0.2106
sg14
I10510
sg15
I10510
sg16
I7490
sa(dp25
g2
F0.4
sg3
F0.4
sg4
F0.34
sg5
F0.14
sg6
F0.43
sg7
F0.04
sg8
I14040
sg9
I14040
sg10
I14040
sg11
F0.1598
sg12
F0.2106
sg13
F0.2106
sg14
I10750
sg15
I10750
sg16
I7660
sa(dp26
g2
F0.4
sg3
F0.4
sg4
F0.34
sg5
F0.14
sg6
F0.43
sg7
F0.04
sg8
I14370
sg9
I14370
sg10
I14370
sg11
F0.1598
sg12
F0.2106
sg13
F0.2106
sg14
I11000
sg15
I11000
sg16
I7830
sa(dp27
g2
F0.4
sg3
F0.4
sg4
F0.34
sg5
F0.14
sg6
F0.43
sg7
F0.04
sg8
I14810
sg9
I14810
sg10
I14810
sg11
F0.1598
sg12
F0.2106
sg13
F0.2106
sg14
I11340
sg15
I11340
sg16
I8080
sa(dp28
g2
F0.4
sg3
F0.4
sg4
F0.34
sg5
F0.14
sg6
F0.43
sg7
F0.04
sg8
I15390
sg9
I15390
sg10
I15390
sg11
F0.1598
sg12
F0.2106
sg13
F0.2106
sg14
I11790
sg15
I11790
sg16
I8390
sa(dp29
g2
F0.4
sg3
F0.4
sg4
F0.34
sg5
F0.14
sg6
F0.43
sg7
F0.04
sg8
I15740
sg9
I15740
sg10
I15740
sg11
F0.1598
sg12
F0.2106
sg13
F0.2106
sg14
I12060
sg15
I12060
sg16
I8580
sa(dp30
g2
F0.4
sg3
F0.45
sg4
F0.34
sg5
F0.14
sg6
F0.43
sg7
F0.04
sg8
I16420
sg9
I16420
sg10
I16420
sg11
F0.1598
sg12
F0.2106
sg13
F0.2106
sg14
I12570
sg15
I12570
sg16
I8950
sa(dp31
g2
F0.4
sg3
F0.45
sg4
F0.34
sg5
F0.14
sg6
F0.43
sg7
F0.04
sg8
I16450
sg9
I16450
sg10
I16450
sg11
F0.1598
sg12
F0.2106
sg13
F0.2106
sg14
I12590
sg15
I12590
sg16
I8970
sa(dp32
g2
F0.4
sg3
F0.45
sg4
F0.34
sg5
F0.14
sg6
F0.43
sg7
F0.04
sg8
I16690
sg9
I16690
sg10
I16690
sg11
F0.1598
sg12
F0.2106
sg13
F0.2106
sg14
I12780
sg15
I12780
sg16
I9100
sa(dp33
g2
F0.4
sg3
F0.45
sg4
F0.34
sg5
F0.14
sg6
F0.43
sg7
F0.04
sg8
I17090
sg9
I17090
sg10
I17090
sg11
F0.1598
sg12
F0.2106
sg13
F0.2106
sg14
I13090
sg15
I13090
sg16
I9320
sa(dp34
g2
F0.4
sg3
F0.45
sg4
F0.34
sg5
F0.14
sg6
F0.43
sg7
F0.04
sg8
I17530
sg9
I17530
sg10
I17530
sg11
F0.1598
sg12
F0.2106
sg13
F0.2106
sg14
I13430
sg15
I13430
sg16
I9560
sa.